target datalayout = "e-m:e-p270:32:32-p271:32:32-p272:64:64-i64:64-i128:128-f80:128-n8:16:32:64-S128"
target triple = "x86_64-pc-linux-gnu"

%struct.script_op = type { i32, i64, i64, ptr, i64, ptr }

@.str.2 = private unnamed_addr constant [32 x i8] c"../openssl/test/quic_txp_test.c\00", align 1
@.str.169 = private unnamed_addr constant [41 x i8] c"failed dyn script 1 with target size %zu\00", align 1

; Function Attrs: nounwind uwtable
define internal i32 @test_dyn_script_1(i32 noundef %0) #0 {
  %2 = alloca i32, align 4
  %3 = alloca i32, align 4
  %4 = alloca i64, align 8
  %5 = alloca i32, align 4
  %6 = alloca i32, align 4
  store i32 %0, ptr %3, align 4, !tbaa !4
  call void @llvm.lifetime.start.p0(i64 8, ptr %4) #7
  %7 = load i32, ptr %3, align 4, !tbaa !4
  %8 = sext i32 %7 to i64
  %9 = add i64 1000, %8
  store i64 %9, ptr %4, align 8, !tbaa !11
  call void @llvm.lifetime.start.p0(i64 4, ptr %5) #7
  %10 = load i64, ptr %4, align 8, !tbaa !11
  %11 = icmp ule i64 %10, 1115
  %12 = zext i1 %11 to i32
  store i32 %12, ptr %5, align 4, !tbaa !4
  %13 = load i64, ptr %4, align 8, !tbaa !11
  store i64 %13, ptr getelementptr inbounds nuw (%struct.script_op, ptr getelementptr inbounds nuw ([12 x %struct.script_op], ptr @dyn_script_1, i64 0, i64 3), i32 0, i32 4), align 16, !tbaa !13
  %14 = load i32, ptr %5, align 4, !tbaa !4
  %15 = icmp ne i32 %14, 0
  br i1 %15, label %16, label %17

16:                                               ; preds = %1
  store i32 3, ptr getelementptr inbounds nuw ([12 x %struct.script_op], ptr @dyn_script_1, i64 0, i64 9), align 16, !tbaa !15
  store i32 9, ptr getelementptr inbounds nuw ([12 x %struct.script_op], ptr @dyn_script_1, i64 0, i64 10), align 16, !tbaa !15
  store ptr @check_is_handshake, ptr getelementptr inbounds nuw (%struct.script_op, ptr getelementptr inbounds nuw ([12 x %struct.script_op], ptr @dyn_script_1, i64 0, i64 10), i32 0, i32 5), align 8, !tbaa !16
  br label %18

17:                                               ; preds = %1
  store i32 4, ptr getelementptr inbounds nuw ([12 x %struct.script_op], ptr @dyn_script_1, i64 0, i64 9), align 16, !tbaa !15
  store i32 23, ptr getelementptr inbounds nuw ([12 x %struct.script_op], ptr @dyn_script_1, i64 0, i64 10), align 16, !tbaa !15
  br label %18

18:                                               ; preds = %17, %16
  %19 = load i32, ptr %3, align 4, !tbaa !4
  %20 = call i32 @run_script(i32 noundef %19, ptr noundef @dyn_script_1)
  %21 = icmp ne i32 %20, 0
  br i1 %21, label %24, label %22

22:                                               ; preds = %18
  %23 = load i64, ptr %4, align 8, !tbaa !11
  call void (ptr, i32, ptr, ...) @test_error(ptr noundef @.str.2, i32 noundef 1696, ptr noundef @.str.169, i64 noundef %23)
  store i32 0, ptr %2, align 4
  store i32 1, ptr %6, align 4
  br label %25

24:                                               ; preds = %18
  store i32 1, ptr %2, align 4
  store i32 1, ptr %6, align 4
  br label %25

25:                                               ; preds = %24, %22
  call void @llvm.lifetime.end.p0(i64 4, ptr %5) #7
  call void @llvm.lifetime.end.p0(i64 8, ptr %4) #7
  %26 = load i32, ptr %2, align 4
  ret i32 %26
}