; Function Attrs: nounwind uwtable
define internal range(i32 0, 2) i32 @test_dyn_script_1(i32 noundef %0) #0 {
  %2 = sext i32 %0 to i64
  %3 = add nsw i64 %2, 1000
  %4 = icmp ult i64 %3, 1116
  store i64 %3, ptr getelementptr inbounds nuw (i8, ptr @dyn_script_1, i64 176), align 16, !tbaa !9
  br i1 %4, label %5, label %6

5:                                                ; preds = %1
  store ptr @check_is_handshake, ptr getelementptr inbounds nuw (i8, ptr @dyn_script_1, i64 520), align 8, !tbaa !13
  br label %6

6:                                                ; preds = %1, %5
  %.sink7 = phi i32 [ 3, %5 ], [ 4, %1 ]
  %.sink = phi i32 [ 9, %5 ], [ 23, %1 ]
  store i32 %.sink7, ptr getelementptr inbounds nuw (i8, ptr @dyn_script_1, i64 432), align 16, !tbaa !14
  store i32 %.sink, ptr getelementptr inbounds nuw (i8, ptr @dyn_script_1, i64 480), align 16, !tbaa !14
  %7 = tail call fastcc i32 @run_script(i32 noundef %0, ptr noundef nonnull @dyn_script_1)
  %.not = icmp eq i32 %7, 0
  br i1 %.not, label %8, label %9

8:                                                ; preds = %6
  tail call void (ptr, i32, ptr, ...) @test_error(ptr noundef nonnull @.str.2, i32 noundef 1696, ptr noundef nonnull @.str.169, i64 noundef %3) #8
  br label %9

9:                                                ; preds = %6, %8
  %.0 = phi i32 [ 0, %8 ], [ 1, %6 ]
  ret i32 %.0
}